target datalayout = "e-m:e-p270:32:32-p271:32:32-p272:64:64-i64:64-i128:128-f80:128-n8:16:32:64-S128"
target triple = "x86_64-pc-linux-gnu"

%struct.commandDocs = type { ptr, ptr, ptr, ptr, i32, ptr, ptr, ptr }
%struct.helpEntry = type { i32, i32, ptr, ptr, %struct.commandDocs }

@helpEntriesLen = internal global i32 0, align 4
@helpEntries = internal global ptr null, align 8
@.str.798 = private unnamed_addr constant [6 x i8] c"help \00", align 1

; Function Attrs: nounwind uwtable
define internal void @completionCallback(ptr noundef %0, ptr noundef %1) #0 {
  %3 = alloca ptr, align 8
  %4 = alloca ptr, align 8
  %5 = alloca i64, align 8
  %6 = alloca i32, align 4
  %7 = alloca i32, align 4
  %8 = alloca i64, align 8
  %9 = alloca ptr, align 8
  store ptr %0, ptr %3, align 8, !tbaa !5
  store ptr %1, ptr %4, align 8, !tbaa !596
  call void @llvm.lifetime.start.p0(i64 8, ptr %5) #15
  store i64 0, ptr %5, align 8, !tbaa !27
  call void @llvm.lifetime.start.p0(i64 4, ptr %6) #15
  call void @llvm.lifetime.start.p0(i64 4, ptr %7) #15
  call void @llvm.lifetime.start.p0(i64 8, ptr %8) #15
  call void @llvm.lifetime.start.p0(i64 8, ptr %9) #15
  %10 = load ptr, ptr %3, align 8, !tbaa !5
  %11 = call i32 @strncasecmp(ptr noundef %10, ptr noundef @.str.798, i64 noundef 5) #16
  %12 = icmp eq i32 %11, 0
  br i1 %12, label %13, label %32

13:                                               ; preds = %2
  store i64 5, ptr %5, align 8, !tbaa !27
  br label %14

14:                                               ; preds = %28, %13
  %15 = call ptr @__ctype_b_loc() #19
  %16 = load ptr, ptr %15, align 8, !tbaa !77
  %17 = load ptr, ptr %3, align 8, !tbaa !5
  %18 = load i64, ptr %5, align 8, !tbaa !27
  %19 = getelementptr inbounds nuw i8, ptr %17, i64 %18
  %20 = load i8, ptr %19, align 1, !tbaa !79
  %21 = sext i8 %20 to i32
  %22 = sext i32 %21 to i64
  %23 = getelementptr inbounds i16, ptr %16, i64 %22
  %24 = load i16, ptr %23, align 2, !tbaa !80
  %25 = zext i16 %24 to i32
  %26 = and i32 %25, 8192
  %27 = icmp ne i32 %26, 0
  br i1 %27, label %28, label %31

28:                                               ; preds = %14
  %29 = load i64, ptr %5, align 8, !tbaa !27
  %30 = add i64 %29, 1
  store i64 %30, ptr %5, align 8, !tbaa !27
  br label %14, !llvm.loop !598

31:                                               ; preds = %14
  store i32 3, ptr %6, align 4, !tbaa !10
  br label %33

32:                                               ; preds = %2
  store i32 1, ptr %6, align 4, !tbaa !10
  br label %33

33:                                               ; preds = %32, %31
  store i32 0, ptr %7, align 4, !tbaa !10
  br label %34

34:                                               ; preds = %82, %33
  %35 = load i32, ptr %7, align 4, !tbaa !10
  %36 = load i32, ptr @helpEntriesLen, align 4, !tbaa !10
  %37 = icmp slt i32 %35, %36
  br i1 %37, label %38, label %85

38:                                               ; preds = %34
  %39 = load ptr, ptr @helpEntries, align 8, !tbaa !16
  %40 = load i32, ptr %7, align 4, !tbaa !10
  %41 = sext i32 %40 to i64
  %42 = getelementptr inbounds %struct.helpEntry, ptr %39, i64 %41
  %43 = getelementptr inbounds nuw %struct.helpEntry, ptr %42, i32 0, i32 0
  %44 = load i32, ptr %43, align 8, !tbaa !33
  %45 = load i32, ptr %6, align 4, !tbaa !10
  %46 = and i32 %44, %45
  %47 = icmp ne i32 %46, 0
  br i1 %47, label %49, label %48

48:                                               ; preds = %38
  br label %82

49:                                               ; preds = %38
  %50 = load ptr, ptr %3, align 8, !tbaa !5
  %51 = load i64, ptr %5, align 8, !tbaa !27
  %52 = getelementptr inbounds nuw i8, ptr %50, i64 %51
  %53 = call i64 @strlen(ptr noundef %52) #16
  store i64 %53, ptr %8, align 8, !tbaa !27
  %54 = load ptr, ptr %3, align 8, !tbaa !5
  %55 = load i64, ptr %5, align 8, !tbaa !27
  %56 = getelementptr inbounds nuw i8, ptr %54, i64 %55
  %57 = load ptr, ptr @helpEntries, align 8, !tbaa !16
  %58 = load i32, ptr %7, align 4, !tbaa !10
  %59 = sext i32 %58 to i64
  %60 = getelementptr inbounds %struct.helpEntry, ptr %57, i64 %59
  %61 = getelementptr inbounds nuw %struct.helpEntry, ptr %60, i32 0, i32 3
  %62 = load ptr, ptr %61, align 8, !tbaa !17
  %63 = load i64, ptr %8, align 8, !tbaa !27
  %64 = call i32 @strncasecmp(ptr noundef %56, ptr noundef %62, i64 noundef %63) #16
  %65 = icmp eq i32 %64, 0
  br i1 %65, label %66, label %81

66:                                               ; preds = %49
  %67 = load ptr, ptr %3, align 8, !tbaa !5
  %68 = load i64, ptr %5, align 8, !tbaa !27
  %69 = call ptr @hi_sdsnewlen(ptr noundef %67, i64 noundef %68)
  store ptr %69, ptr %9, align 8, !tbaa !5
  %70 = load ptr, ptr %9, align 8, !tbaa !5
  %71 = load ptr, ptr @helpEntries, align 8, !tbaa !16
  %72 = load i32, ptr %7, align 4, !tbaa !10
  %73 = sext i32 %72 to i64
  %74 = getelementptr inbounds %struct.helpEntry, ptr %71, i64 %73
  %75 = getelementptr inbounds nuw %struct.helpEntry, ptr %74, i32 0, i32 3
  %76 = load ptr, ptr %75, align 8, !tbaa !17
  %77 = call ptr @hi_sdscat(ptr noundef %70, ptr noundef %76)
  store ptr %77, ptr %9, align 8, !tbaa !5
  %78 = load ptr, ptr %4, align 8, !tbaa !596
  %79 = load ptr, ptr %9, align 8, !tbaa !5
  call void @linenoiseAddCompletion(ptr noundef %78, ptr noundef %79)
  %80 = load ptr, ptr %9, align 8, !tbaa !5
  call void @hi_sdsfree(ptr noundef %80)
  br label %81

81:                                               ; preds = %66, %49
  br label %82

82:                                               ; preds = %81, %48
  %83 = load i32, ptr %7, align 4, !tbaa !10
  %84 = add nsw i32 %83, 1
  store i32 %84, ptr %7, align 4, !tbaa !10
  br label %34, !llvm.loop !599

85:                                               ; preds = %34
  call void @llvm.lifetime.end.p0(i64 8, ptr %9) #15
  call void @llvm.lifetime.end.p0(i64 8, ptr %8) #15
  call void @llvm.lifetime.end.p0(i64 4, ptr %7) #15
  call void @llvm.lifetime.end.p0(i64 4, ptr %6) #15
  call void @llvm.lifetime.end.p0(i64 8, ptr %5) #15
  ret void
}