; Function Attrs: nounwind uwtable
define internal void @completionCallback(ptr noundef %0, ptr noundef %1) #0 {
  %3 = tail call i32 @strncasecmp(ptr noundef %0, ptr noundef nonnull @.str.798, i64 noundef 5) #35
  %4 = icmp eq i32 %3, 0
  br i1 %4, label %.preheader, label %.loopexit

.preheader:                                       ; preds = %2
  %5 = tail call ptr @__ctype_b_loc() #38
  %6 = load ptr, ptr %5, align 8, !tbaa !65
  br label %7

7:                                                ; preds = %7, %.preheader
  %.0 = phi i64 [ %14, %7 ], [ 5, %.preheader ]
  %8 = getelementptr inbounds nuw i8, ptr %0, i64 %.0
  %9 = load i8, ptr %8, align 1, !tbaa !67
  %10 = sext i8 %9 to i64
  %11 = getelementptr inbounds i16, ptr %6, i64 %10
  %12 = load i16, ptr %11, align 2, !tbaa !68
  %13 = and i16 %12, 8192
  %.not = icmp eq i16 %13, 0
  %14 = add i64 %.0, 1
  br i1 %.not, label %.loopexit, label %7, !llvm.loop !530

.loopexit:                                        ; preds = %7, %2
  %.020 = phi i32 [ 1, %2 ], [ 3, %7 ]
  %.1 = phi i64 [ 0, %2 ], [ %.0, %7 ]
  %15 = load i32, ptr @helpEntriesLen, align 4, !tbaa !22
  %16 = icmp sgt i32 %15, 0
  br i1 %16, label %.lr.ph, label %._crit_edge

.lr.ph:                                           ; preds = %.loopexit
  %17 = getelementptr inbounds nuw i8, ptr %0, i64 %.1
  %.pre25 = load ptr, ptr @helpEntries, align 8, !tbaa !23
  br label %18

18:                                               ; preds = %.lr.ph, %36
  %19 = phi i32 [ %15, %.lr.ph ], [ %37, %36 ]
  %20 = phi ptr [ %.pre25, %.lr.ph ], [ %38, %36 ]
  %indvars.iv = phi i64 [ 0, %.lr.ph ], [ %indvars.iv.next, %36 ]
  %21 = getelementptr inbounds nuw %struct.helpEntry, ptr %20, i64 %indvars.iv
  %22 = load i32, ptr %21, align 8, !tbaa !218
  %23 = and i32 %22, %.020
  %.not22 = icmp eq i32 %23, 0
  br i1 %.not22, label %36, label %24

24:                                               ; preds = %18
  %25 = tail call i64 @strlen(ptr noundef nonnull dereferenceable(1) %17) #35
  %26 = getelementptr inbounds nuw i8, ptr %21, i64 16
  %27 = load ptr, ptr %26, align 8, !tbaa !12
  %28 = tail call i32 @strncasecmp(ptr noundef nonnull %17, ptr noundef %27, i64 noundef %25) #35
  %29 = icmp eq i32 %28, 0
  br i1 %29, label %30, label %36

30:                                               ; preds = %24
  %31 = tail call ptr @hi_sdsnewlen(ptr noundef nonnull %0, i64 noundef %.1) #33
  %32 = load ptr, ptr @helpEntries, align 8, !tbaa !23
  %33 = getelementptr inbounds nuw %struct.helpEntry, ptr %32, i64 %indvars.iv, i32 3
  %34 = load ptr, ptr %33, align 8, !tbaa !12
  %35 = tail call ptr @hi_sdscat(ptr noundef %31, ptr noundef %34) #33
  tail call void @linenoiseAddCompletion(ptr noundef %1, ptr noundef %35) #33
  tail call void @hi_sdsfree(ptr noundef %35) #33
  %.pre = load ptr, ptr @helpEntries, align 8, !tbaa !23
  %.pre26 = load i32, ptr @helpEntriesLen, align 4, !tbaa !22
  br label %36

36:                                               ; preds = %24, %30, %18
  %37 = phi i32 [ %19, %24 ], [ %.pre26, %30 ], [ %19, %18 ]
  %38 = phi ptr [ %20, %24 ], [ %.pre, %30 ], [ %20, %18 ]
  %indvars.iv.next = add nuw nsw i64 %indvars.iv, 1
  %39 = sext i32 %37 to i64
  %40 = icmp slt i64 %indvars.iv.next, %39
  br i1 %40, label %18, label %._crit_edge, !llvm.loop !531

._crit_edge:                                      ; preds = %36, %.loopexit
  ret void
}